; Function Attrs: mustprogress uwtable
define hidden noundef zeroext i1 @_ZN18OpenImageIO_v2_6_08TGAInput20read_native_scanlineEiiiiPv(ptr noundef nonnull align 8 dereferenceable(312) %this, i32 noundef %subimage, i32 noundef %miplevel, i32 noundef %y, i32 %0, ptr nocapture noundef writeonly %data) unnamed_addr #5 align 2 personality ptr @__gxx_personality_v0 {
entry:
  tail call void @_ZNK18OpenImageIO_v2_6_010ImageInput4lockEv(ptr noundef nonnull align 8 dereferenceable(184) %this)
  %vtable.i = load ptr, ptr %this, align 8
  %vfn.i = getelementptr inbounds i8, ptr %vtable.i, i64 104
  %1 = load ptr, ptr %vfn.i, align 8
  %call.i3 = invoke noundef i32 %1(ptr noundef nonnull align 8 dereferenceable(184) %this)
          to label %call.i.noexc unwind label %lpad

call.i.noexc:                                     ; preds = %entry
  %cmp.i = icmp eq i32 %call.i3, %subimage
  br i1 %cmp.i, label %land.rhs.i, label %cleanup

land.rhs.i:                                       ; preds = %call.i.noexc
  %vtable2.i = load ptr, ptr %this, align 8
  %vfn3.i = getelementptr inbounds i8, ptr %vtable2.i, i64 112
  %2 = load ptr, ptr %vfn3.i, align 8
  %call4.i4 = invoke noundef i32 %2(ptr noundef nonnull align 8 dereferenceable(184) %this)
          to label %invoke.cont unwind label %lpad

invoke.cont:                                      ; preds = %land.rhs.i
  %cmp5.i = icmp eq i32 %call4.i4, %miplevel
  br i1 %cmp5.i, label %if.end, label %cleanup

lpad:                                             ; preds = %land.rhs.i, %entry, %if.then3
  %3 = landingpad { ptr, i32 }
          cleanup
  invoke void @_ZNK18OpenImageIO_v2_6_010ImageInput6unlockEv(ptr noundef nonnull align 8 dereferenceable(184) %this)
          to label %_ZNSt10lock_guardIRKN18OpenImageIO_v2_6_010ImageInputEED2Ev.exit unwind label %terminate.lpad.i

terminate.lpad.i:                                 ; preds = %lpad
  %4 = landingpad { ptr, i32 }
          catch ptr null
  %5 = extractvalue { ptr, i32 } %4, 0
  tail call void @__clang_call_terminate(ptr %5) #27
  unreachable

_ZNSt10lock_guardIRKN18OpenImageIO_v2_6_010ImageInputEED2Ev.exit: ; preds = %lpad
  resume { ptr, i32 } %3

if.end:                                           ; preds = %invoke.cont
  %m_buf = getelementptr inbounds i8, ptr %this, i64 304
  %6 = load ptr, ptr %m_buf, align 8
  %cmp.i5.not = icmp eq ptr %6, null
  br i1 %cmp.i5.not, label %if.then3, label %if.end8

if.then3:                                         ; preds = %if.end
  %call5 = invoke noundef zeroext i1 @_ZN18OpenImageIO_v2_6_08TGAInput7readimgEv(ptr noundef nonnull align 8 dereferenceable(312) %this)
          to label %invoke.cont4 unwind label %lpad

invoke.cont4:                                     ; preds = %if.then3
  br i1 %call5, label %if.end8, label %cleanup

if.end8:                                          ; preds = %invoke.cont4, %if.end
  %attr = getelementptr inbounds i8, ptr %this, i64 235
  %7 = load i8, ptr %attr, align 1
  %8 = and i8 %7, 32
  %tobool.not = icmp eq i8 %8, 0
  %height = getelementptr inbounds i8, ptr %this, i64 24
  %9 = load i32, ptr %height, align 8
  %10 = xor i32 %y, -1
  %sub10 = add i32 %9, %10
  %y.addr.0 = select i1 %tobool.not, i32 %y, i32 %sub10
  %m_spec.i = getelementptr inbounds i8, ptr %this, i64 8
  %call14 = tail call noundef i64 @_ZNK18OpenImageIO_v2_6_09ImageSpec14scanline_bytesEb(ptr noundef nonnull align 8 dereferenceable(160) %m_spec.i, i1 noundef zeroext false) #24
  %11 = load ptr, ptr %m_buf, align 8
  %conv17 = sext i32 %y.addr.0 to i64
  %mul = mul i64 %call14, %conv17
  %add.ptr = getelementptr inbounds i8, ptr %11, i64 %mul
  tail call void @llvm.memcpy.p0.p0.i64(ptr align 1 %data, ptr align 1 %add.ptr, i64 %call14, i1 false)
  br label %cleanup

cleanup:                                          ; preds = %call.i.noexc, %invoke.cont4, %invoke.cont, %if.end8
  %retval.0 = phi i1 [ true, %if.end8 ], [ false, %invoke.cont ], [ false, %invoke.cont4 ], [ false, %call.i.noexc ]
  invoke void @_ZNK18OpenImageIO_v2_6_010ImageInput6unlockEv(ptr noundef nonnull align 8 dereferenceable(184) %this)
          to label %_ZNSt10lock_guardIRKN18OpenImageIO_v2_6_010ImageInputEED2Ev.exit7 unwind label %terminate.lpad.i6

terminate.lpad.i6:                                ; preds = %cleanup
  %12 = landingpad { ptr, i32 }
          catch ptr null
  %13 = extractvalue { ptr, i32 } %12, 0
  tail call void @__clang_call_terminate(ptr %13) #27
  unreachable

_ZNSt10lock_guardIRKN18OpenImageIO_v2_6_010ImageInputEED2Ev.exit7: ; preds = %cleanup
  ret i1 %retval.0
}